; Function Attrs: nounwind uwtable
define internal noundef i32 @cell_set_contents(ptr noundef captures(none) %0, ptr noundef %1, ptr readnone captures(none) %2) #0 {
  %.not.i = icmp eq ptr %1, null
  br i1 %.not.i, label %Py_XINCREF.exit, label %4

4:                                                ; preds = %3
  %5 = load i32, ptr %1, align 8, !tbaa !4
  %6 = icmp slt i32 %5, 0
  br i1 %6, label %Py_XINCREF.exit, label %7

7:                                                ; preds = %4
  %8 = add nuw i32 %5, 1
  store i32 %8, ptr %1, align 8, !tbaa !4
  br label %Py_XINCREF.exit

Py_XINCREF.exit:                                  ; preds = %3, %4, %7
  %9 = getelementptr inbounds nuw i8, ptr %0, i64 16
  %10 = load ptr, ptr %9, align 8, !tbaa !7
  store ptr %1, ptr %9, align 8, !tbaa !7
  %.not.i.i = icmp eq ptr %10, null
  br i1 %.not.i.i, label %PyCell_SetTakeRef.exit, label %11

11:                                               ; preds = %Py_XINCREF.exit
  %12 = load i32, ptr %10, align 8, !tbaa !4
  %.not.i.i.i = icmp sgt i32 %12, -1
  br i1 %.not.i.i.i, label %13, label %PyCell_SetTakeRef.exit

13:                                               ; preds = %11
  %14 = add nsw i32 %12, -1
  store i32 %14, ptr %10, align 8, !tbaa !4
  %15 = icmp eq i32 %14, 0
  br i1 %15, label %16, label %PyCell_SetTakeRef.exit

16:                                               ; preds = %13
  tail call void @_Py_Dealloc(ptr noundef nonnull %10) #4
  br label %PyCell_SetTakeRef.exit

PyCell_SetTakeRef.exit:                           ; preds = %Py_XINCREF.exit, %11, %13, %16
  ret i32 0
}